target datalayout = "e-m:e-p270:32:32-p271:32:32-p272:64:64-i64:64-i128:128-f80:128-n8:16:32:64-S128"
target triple = "x86_64-pc-linux-gnu"

; Function Attrs: nounwind uwtable
define hidden zeroext i1 @SDL_HasGamepad_REAL() #0 {
  %1 = alloca i1, align 1
  %2 = alloca i32, align 4
  %3 = alloca i32, align 4
  %4 = alloca ptr, align 8
  %5 = alloca i32, align 4
  %6 = alloca i32, align 4
  call void @llvm.lifetime.start.p0(i64 4, ptr %2) #8
  store i32 0, ptr %2, align 4
  call void @llvm.lifetime.start.p0(i64 4, ptr %3) #8
  store i32 0, ptr %3, align 4
  call void @llvm.lifetime.start.p0(i64 8, ptr %4) #8
  %7 = call ptr @SDL_GetJoysticks_REAL(ptr noundef %2)
  store ptr %7, ptr %4, align 8
  %8 = load ptr, ptr %4, align 8
  %9 = icmp ne ptr %8, null
  br i1 %9, label %10, label %37

10:                                               ; preds = %0
  call void @llvm.lifetime.start.p0(i64 4, ptr %5) #8
  %11 = load i32, ptr %2, align 4
  %12 = sub nsw i32 %11, 1
  store i32 %12, ptr %5, align 4
  br label %13

13:                                               ; preds = %32, %10
  %14 = load i32, ptr %5, align 4
  %15 = icmp sge i32 %14, 0
  br i1 %15, label %16, label %19

16:                                               ; preds = %13
  %17 = load i32, ptr %3, align 4
  %18 = icmp eq i32 %17, 0
  br label %19

19:                                               ; preds = %16, %13
  %20 = phi i1 [ false, %13 ], [ %18, %16 ]
  br i1 %20, label %21, label %35

21:                                               ; preds = %19
  %22 = load ptr, ptr %4, align 8
  %23 = load i32, ptr %5, align 4
  %24 = sext i32 %23 to i64
  %25 = getelementptr inbounds i32, ptr %22, i64 %24
  %26 = load i32, ptr %25, align 4
  %27 = call zeroext i1 @SDL_IsGamepad_REAL(i32 noundef %26)
  br i1 %27, label %28, label %31

28:                                               ; preds = %21
  %29 = load i32, ptr %3, align 4
  %30 = add nsw i32 %29, 1
  store i32 %30, ptr %3, align 4
  br label %31

31:                                               ; preds = %28, %21
  br label %32

32:                                               ; preds = %31
  %33 = load i32, ptr %5, align 4
  %34 = add nsw i32 %33, -1
  store i32 %34, ptr %5, align 4
  br label %13, !llvm.loop !33

35:                                               ; preds = %19
  %36 = load ptr, ptr %4, align 8
  call void @SDL_free_REAL(ptr noundef %36)
  call void @llvm.lifetime.end.p0(i64 4, ptr %5) #8
  br label %37

37:                                               ; preds = %35, %0
  %38 = load i32, ptr %3, align 4
  %39 = icmp sgt i32 %38, 0
  br i1 %39, label %40, label %41

40:                                               ; preds = %37
  store i1 true, ptr %1, align 1
  store i32 1, ptr %6, align 4
  br label %42

41:                                               ; preds = %37
  store i1 false, ptr %1, align 1
  store i32 1, ptr %6, align 4
  br label %42

42:                                               ; preds = %41, %40
  call void @llvm.lifetime.end.p0(i64 8, ptr %4) #8
  call void @llvm.lifetime.end.p0(i64 4, ptr %3) #8
  call void @llvm.lifetime.end.p0(i64 4, ptr %2) #8
  %43 = load i1, ptr %1, align 1
  ret i1 %43
}