; Function Attrs: nounwind uwtable
define hidden zeroext i1 @SDL_HasGamepad_REAL() local_unnamed_addr #0 {
  %1 = alloca i32, align 4
  call void @llvm.lifetime.start.p0(i64 4, ptr nonnull %1) #10
  store i32 0, ptr %1, align 4
  %2 = call ptr @SDL_GetJoysticks_REAL(ptr noundef nonnull %1) #10
  %.not = icmp eq ptr %2, null
  br i1 %.not, label %11, label %3

3:                                                ; preds = %0
  %4 = load i32, ptr %1, align 4
  %5 = icmp sgt i32 %4, 0
  br i1 %5, label %.lr.ph.preheader, label %._crit_edge

.lr.ph.preheader:                                 ; preds = %3
  %6 = zext nneg i32 %4 to i64
  br label %.lr.ph

.lr.ph:                                           ; preds = %.lr.ph.preheader, %.lr.ph
  %indvars.iv = phi i64 [ %6, %.lr.ph.preheader ], [ %indvars.iv.next, %.lr.ph ]
  %indvars.iv.next = add nsw i64 %indvars.iv, -1
  %7 = getelementptr inbounds nuw i32, ptr %2, i64 %indvars.iv.next
  %8 = load i32, ptr %7, align 4
  %9 = call zeroext i1 @SDL_IsGamepad_REAL(i32 noundef %8)
  %10 = icmp samesign ult i64 %indvars.iv, 2
  %.not14 = or i1 %10, %9
  br i1 %.not14, label %._crit_edge, label %.lr.ph, !llvm.loop !40

._crit_edge:                                      ; preds = %.lr.ph, %3
  %.1.lcssa = phi i1 [ false, %3 ], [ %9, %.lr.ph ]
  call void @SDL_free_REAL(ptr noundef nonnull %2) #10
  br label %11

11:                                               ; preds = %._crit_edge, %0
  %.010 = phi i1 [ %.1.lcssa, %._crit_edge ], [ false, %0 ]
  call void @llvm.lifetime.end.p0(i64 4, ptr nonnull %1) #10
  ret i1 %.010
}